; Function Attrs: mustprogress uwtable
define hidden noundef zeroext i1 @_ZN6google8protobuf25EncodedDescriptorDatabase24FindFileContainingSymbolERKNSt7__cxx1112basic_stringIcSt11char_traitsIcESaIcEEEPNS0_19FileDescriptorProtoE(ptr noundef nonnull readonly align 8 captures(none) dereferenceable(40) %0, ptr noundef nonnull readonly align 8 captures(none) dereferenceable(32) %1, ptr noundef %2) unnamed_addr #6 align 2 {
  %4 = getelementptr inbounds nuw i8, ptr %0, i64 8
  %5 = load ptr, ptr %4, align 8, !tbaa !81
  %6 = load ptr, ptr %1, align 8, !tbaa !25
  %7 = getelementptr inbounds nuw i8, ptr %1, i64 8
  %8 = load i64, ptr %7, align 8, !tbaa !29
  tail call void @_ZN6google8protobuf25EncodedDescriptorDatabase15DescriptorIndex10EnsureFlatEv(ptr noundef nonnull align 8 dereferenceable(240) %5)
  %9 = tail call { ptr, i32 } @_ZNK6google8protobuf25EncodedDescriptorDatabase15DescriptorIndex18FindSymbolOnlyFlatENS0_20stringpiece_internal11StringPieceE(ptr noundef nonnull align 8 dereferenceable(240) %5, ptr %6, i64 %8)
  %.fca.0.extract = extractvalue { ptr, i32 } %9, 0
  %10 = icmp eq ptr %.fca.0.extract, null
  br i1 %10, label %_ZN6google8protobuf25EncodedDescriptorDatabase10MaybeParseESt4pairIPKviEPNS0_19FileDescriptorProtoE.exit, label %11

11:                                               ; preds = %3
  %.fca.1.extract = extractvalue { ptr, i32 } %9, 1
  %12 = tail call noundef zeroext i1 @_ZN6google8protobuf11MessageLite14ParseFromArrayEPKvi(ptr noundef nonnull align 8 dereferenceable(16) %2, ptr noundef nonnull %.fca.0.extract, i32 noundef %.fca.1.extract)
  br label %_ZN6google8protobuf25EncodedDescriptorDatabase10MaybeParseESt4pairIPKviEPNS0_19FileDescriptorProtoE.exit

_ZN6google8protobuf25EncodedDescriptorDatabase10MaybeParseESt4pairIPKviEPNS0_19FileDescriptorProtoE.exit: ; preds = %3, %11
  %.0.i = phi i1 [ %12, %11 ], [ false, %3 ]
  ret i1 %.0.i
}